; Function Attrs: nounwind uwtable
define internal ptr @_codecs_charmap_encode(ptr readnone captures(none) %0, ptr noundef readonly captures(none) %1, i64 noundef %2) #0 {
  %4 = alloca i64, align 8
  %5 = add i64 %2, -1
  %or.cond = icmp ult i64 %5, 3
  br i1 %or.cond, label %8, label %6

6:                                                ; preds = %3
  %7 = tail call i32 @_PyArg_CheckPositional(ptr noundef nonnull @.str.34, i64 noundef %2, i64 noundef 1, i64 noundef 3) #5
  %.not = icmp eq i32 %7, 0
  br i1 %.not, label %_codecs_charmap_encode_impl.exit, label %8

8:                                                ; preds = %3, %6
  %9 = load ptr, ptr %1, align 8, !tbaa !22
  %10 = getelementptr i8, ptr %9, i64 8
  %.val = load ptr, ptr %10, align 8, !tbaa !4
  %11 = getelementptr i8, ptr %.val, i64 168
  %.val34 = load i64, ptr %11, align 8, !tbaa !10
  %12 = and i64 %.val34, 268435456
  %.not29 = icmp eq i64 %12, 0
  br i1 %.not29, label %13, label %14

13:                                               ; preds = %8
  tail call void @_PyArg_BadArgument(ptr noundef nonnull @.str.34, ptr noundef nonnull @.str.50, ptr noundef nonnull @.str.43, ptr noundef nonnull %9) #5
  br label %_codecs_charmap_encode_impl.exit

14:                                               ; preds = %8
  %15 = icmp slt i64 %2, 2
  br i1 %15, label %39, label %16

16:                                               ; preds = %14
  %17 = getelementptr i8, ptr %1, i64 8
  %18 = load ptr, ptr %17, align 8, !tbaa !22
  %19 = icmp eq ptr %18, @_Py_NoneStruct
  br i1 %19, label %34, label %20

20:                                               ; preds = %16
  %21 = getelementptr i8, ptr %18, i64 8
  %.val33 = load ptr, ptr %21, align 8, !tbaa !4
  %22 = getelementptr i8, ptr %.val33, i64 168
  %.val35 = load i64, ptr %22, align 8, !tbaa !10
  %23 = and i64 %.val35, 268435456
  %.not30 = icmp eq i64 %23, 0
  br i1 %.not30, label %33, label %24

24:                                               ; preds = %20
  call void @llvm.lifetime.start.p0(i64 8, ptr nonnull %4) #5
  %25 = call ptr @PyUnicode_AsUTF8AndSize(ptr noundef %18, ptr noundef nonnull %4) #5
  %26 = icmp eq ptr %25, null
  br i1 %26, label %.thread, label %27

27:                                               ; preds = %24
  %28 = call i64 @strlen(ptr noundef nonnull dereferenceable(1) %25) #6
  %29 = load i64, ptr %4, align 8, !tbaa !21
  %.not31 = icmp eq i64 %28, %29
  br i1 %.not31, label %32, label %30

30:                                               ; preds = %27
  %31 = load ptr, ptr @PyExc_ValueError, align 8, !tbaa !22
  call void @PyErr_SetString(ptr noundef %31, ptr noundef nonnull @.str.44) #5
  br label %.thread

.thread:                                          ; preds = %30, %24
  call void @llvm.lifetime.end.p0(i64 8, ptr nonnull %4) #5
  br label %_codecs_charmap_encode_impl.exit

32:                                               ; preds = %27
  call void @llvm.lifetime.end.p0(i64 8, ptr nonnull %4) #5
  br label %34

33:                                               ; preds = %20
  tail call void @_PyArg_BadArgument(ptr noundef nonnull @.str.34, ptr noundef nonnull @.str.52, ptr noundef nonnull @.str.53, ptr noundef %18) #5
  br label %_codecs_charmap_encode_impl.exit

34:                                               ; preds = %32, %16
  %.1 = phi ptr [ %25, %32 ], [ null, %16 ]
  %35 = icmp eq i64 %2, 2
  br i1 %35, label %39, label %36

36:                                               ; preds = %34
  %37 = getelementptr i8, ptr %1, i64 16
  %38 = load ptr, ptr %37, align 8, !tbaa !22
  br label %39

39:                                               ; preds = %34, %14, %36
  %.023 = phi ptr [ null, %14 ], [ %.1, %34 ], [ %.1, %36 ]
  %.022 = phi ptr [ @_Py_NoneStruct, %14 ], [ @_Py_NoneStruct, %34 ], [ %38, %36 ]
  %40 = icmp eq ptr %.022, @_Py_NoneStruct
  %spec.store.select.i = select i1 %40, ptr null, ptr %.022
  %41 = call ptr @_PyUnicode_EncodeCharmap(ptr noundef nonnull %9, ptr noundef %spec.store.select.i, ptr noundef %.023) #5
  %42 = icmp eq ptr %41, null
  br i1 %42, label %_codecs_charmap_encode_impl.exit, label %43

43:                                               ; preds = %39
  %44 = getelementptr i8, ptr %9, i64 16
  %.val.i = load i64, ptr %44, align 8, !tbaa !33
  %45 = call ptr (ptr, ...) @Py_BuildValue(ptr noundef nonnull @.str.55, ptr noundef nonnull %41, i64 noundef %.val.i) #5
  br label %_codecs_charmap_encode_impl.exit

_codecs_charmap_encode_impl.exit:                 ; preds = %43, %39, %.thread, %13, %33, %6
  %.025 = phi ptr [ null, %33 ], [ null, %13 ], [ null, %6 ], [ null, %.thread ], [ %45, %43 ], [ null, %39 ]
  ret ptr %.025
}